; Function Attrs: mustprogress uwtable
define noundef zeroext i1 @_ZNK17double_conversion23DoubleToStringConverter20ToShortestIeeeNumberEdPNS_13StringBuilderENS0_8DtoaModeE(ptr noundef nonnull readonly align 8 captures(none) dereferenceable(48) %0, double noundef %1, ptr noundef captures(none) %2, i32 noundef %3) local_unnamed_addr #5 align 2 {
  %5 = alloca i32, align 4
  %6 = alloca i8, align 1
  %7 = alloca [18 x i8], align 16
  %8 = alloca i32, align 4
  %9 = tail call double @llvm.fabs.f64(double %1)
  %10 = fcmp ueq double %9, 0x7FF0000000000000
  br i1 %10, label %11, label %40

11:                                               ; preds = %4
  %12 = fcmp oeq double %9, 0x7FF0000000000000
  br i1 %12, label %13, label %26

13:                                               ; preds = %11
  %14 = getelementptr inbounds nuw i8, ptr %0, i64 8
  %15 = load ptr, ptr %14, align 8, !tbaa !11
  %16 = icmp eq ptr %15, null
  br i1 %16, label %_ZNK17double_conversion23DoubleToStringConverter19HandleSpecialValuesEdPNS_13StringBuilderE.exit, label %17

17:                                               ; preds = %13
  %18 = fcmp olt double %1, 0.000000e+00
  br i1 %18, label %19, label %.sink.split.i

19:                                               ; preds = %17
  %20 = getelementptr inbounds nuw i8, ptr %2, i64 16
  %21 = load i32, ptr %20, align 8, !tbaa !19
  %22 = add nsw i32 %21, 1
  store i32 %22, ptr %20, align 8, !tbaa !19
  %23 = load ptr, ptr %2, align 8, !tbaa !22
  %24 = sext i32 %21 to i64
  %25 = getelementptr inbounds i8, ptr %23, i64 %24
  store i8 45, ptr %25, align 1, !tbaa !23
  %.pre.i = load ptr, ptr %14, align 8, !tbaa !11
  br label %.sink.split.i

26:                                               ; preds = %11
  %27 = getelementptr inbounds nuw i8, ptr %0, i64 16
  %28 = load ptr, ptr %27, align 8
  %29 = icmp eq ptr %28, null
  br i1 %29, label %_ZNK17double_conversion23DoubleToStringConverter19HandleSpecialValuesEdPNS_13StringBuilderE.exit, label %.sink.split.i

.sink.split.i:                                    ; preds = %26, %19, %17
  %.sink21.i = phi ptr [ %.pre.i, %19 ], [ %15, %17 ], [ %28, %26 ]
  %30 = tail call i64 @strlen(ptr noundef nonnull dereferenceable(1) %.sink21.i) #14
  %31 = trunc i64 %30 to i32
  %32 = getelementptr inbounds nuw i8, ptr %2, i64 16
  %33 = load i32, ptr %32, align 8, !tbaa !19
  %34 = load ptr, ptr %2, align 8, !tbaa !22
  %35 = sext i32 %33 to i64
  %36 = getelementptr inbounds i8, ptr %34, i64 %35
  %sext.i8.i = shl i64 %30, 32
  %37 = ashr exact i64 %sext.i8.i, 32
  tail call void @llvm.memmove.p0.p0.i64(ptr nonnull align 1 %36, ptr nonnull align 1 %.sink21.i, i64 %37, i1 false)
  %38 = load i32, ptr %32, align 8, !tbaa !19
  %39 = add nsw i32 %38, %31
  store i32 %39, ptr %32, align 8, !tbaa !19
  br label %_ZNK17double_conversion23DoubleToStringConverter19HandleSpecialValuesEdPNS_13StringBuilderE.exit

40:                                               ; preds = %4
  call void @llvm.lifetime.start.p0(i64 4, ptr nonnull %5) #13
  call void @llvm.lifetime.start.p0(i64 1, ptr nonnull %6) #13
  call void @llvm.lifetime.start.p0(i64 18, ptr nonnull %7) #13
  call void @llvm.lifetime.start.p0(i64 4, ptr nonnull %8) #13
  call void @_ZN17double_conversion23DoubleToStringConverter13DoubleToAsciiEdNS0_8DtoaModeEiPciPbPiS4_(double noundef %1, i32 noundef %3, i32 noundef 0, ptr noundef nonnull %7, i32 noundef 18, ptr noundef nonnull %6, ptr noundef nonnull %8, ptr noundef nonnull %5)
  %41 = load i32, ptr %0, align 8, !tbaa !4
  %42 = and i32 %41, 8
  %.not = icmp eq i32 %42, 0
  %43 = load i8, ptr %6, align 1, !tbaa !29, !range !31, !noundef !32
  %44 = trunc nuw i8 %43 to i1
  %45 = fcmp une double %1, 0.000000e+00
  %brmerge = select i1 %45, i1 true, i1 %.not
  %or.cond18 = select i1 %44, i1 %brmerge, i1 false
  br i1 %or.cond18, label %46, label %53

46:                                               ; preds = %40
  %47 = getelementptr inbounds nuw i8, ptr %2, i64 16
  %48 = load i32, ptr %47, align 8, !tbaa !19
  %49 = add nsw i32 %48, 1
  store i32 %49, ptr %47, align 8, !tbaa !19
  %50 = load ptr, ptr %2, align 8, !tbaa !22
  %51 = sext i32 %48 to i64
  %52 = getelementptr inbounds i8, ptr %50, i64 %51
  store i8 45, ptr %52, align 1, !tbaa !23
  br label %53

53:                                               ; preds = %46, %40
  %54 = load i32, ptr %5, align 4, !tbaa !26
  %55 = getelementptr inbounds nuw i8, ptr %0, i64 28
  %56 = load i32, ptr %55, align 4, !tbaa !14
  %.not15.not = icmp sge i32 %56, %54
  %57 = getelementptr inbounds nuw i8, ptr %0, i64 32
  %58 = load i32, ptr %57, align 8
  %.not16 = icmp sgt i32 %54, %58
  %or.cond = select i1 %.not15.not, i1 true, i1 %.not16
  br i1 %or.cond, label %62, label %59

59:                                               ; preds = %53
  %60 = load i32, ptr %8, align 4, !tbaa !26
  %61 = sub nsw i32 %60, %54
  %.sroa.speculated = call i32 @llvm.smax.i32(i32 %61, i32 0)
  call void @_ZNK17double_conversion23DoubleToStringConverter27CreateDecimalRepresentationEPKciiiPNS_13StringBuilderE(ptr noundef nonnull align 8 dereferenceable(48) %0, ptr noundef nonnull %7, i32 noundef %60, i32 noundef %54, i32 noundef %.sroa.speculated, ptr noundef %2)
  br label %65

62:                                               ; preds = %53
  %63 = add nsw i32 %54, -1
  %64 = load i32, ptr %8, align 4, !tbaa !26
  call void @_ZNK17double_conversion23DoubleToStringConverter31CreateExponentialRepresentationEPKciiPNS_13StringBuilderE(ptr noundef nonnull align 8 dereferenceable(48) %0, ptr noundef nonnull %7, i32 noundef %64, i32 noundef %63, ptr noundef %2)
  br label %65

65:                                               ; preds = %62, %59
  call void @llvm.lifetime.end.p0(i64 4, ptr nonnull %8) #13
  call void @llvm.lifetime.end.p0(i64 18, ptr nonnull %7) #13
  call void @llvm.lifetime.end.p0(i64 1, ptr nonnull %6) #13
  call void @llvm.lifetime.end.p0(i64 4, ptr nonnull %5) #13
  br label %_ZNK17double_conversion23DoubleToStringConverter19HandleSpecialValuesEdPNS_13StringBuilderE.exit

_ZNK17double_conversion23DoubleToStringConverter19HandleSpecialValuesEdPNS_13StringBuilderE.exit: ; preds = %.sink.split.i, %26, %13, %65
  %.0 = phi i1 [ true, %65 ], [ false, %13 ], [ false, %26 ], [ true, %.sink.split.i ]
  ret i1 %.0
}